	.text
	.def	@feat.00;
	.scl	3;
	.type	0;
	.endef
	.globl	@feat.00
.set @feat.00, 0
	.file	"main.cpp"
	.def	"?addVectors@@YAXPEBN0PEANH@Z";
	.scl	2;
	.type	32;
	.endef
	.section	.text,"xr",one_only,"?addVectors@@YAXPEBN0PEANH@Z"
	.globl	"?addVectors@@YAXPEBN0PEANH@Z"
	.p2align	4, 0x90
"?addVectors@@YAXPEBN0PEANH@Z":
.Lfunc_begin0:
	.cv_func_id 0
	.cv_file	1 "C:\\Users\\\320\230\320\262\320\260\320\275\\Desktop\\IntelIntrinsics\\Intrinsics\\main.cpp" "D14B77FEAAC1572C31DC78F3DF5A7518" 1
	.cv_loc	0 1 10 0
.seh_proc "?addVectors@@YAXPEBN0PEANH@Z"
	pushq	%r15
	.seh_pushreg %r15
	pushq	%r14
	.seh_pushreg %r14
	pushq	%r12
	.seh_pushreg %r12
	pushq	%rsi
	.seh_pushreg %rsi
	pushq	%rdi
	.seh_pushreg %rdi
	pushq	%rbx
	.seh_pushreg %rbx
	.seh_endprologue
.Ltmp0:
	xorl	%eax, %eax
.Ltmp1:
	.cv_loc	0 1 13 0
	cmpl	$4, %r9d
	jl	.LBB0_5
.Ltmp2:
	movl	%r9d, %eax
	andl	$2147483644, %eax
	decq	%rax
	movq	%rax, %r10
	shrq	$2, %r10
	leaq	1(%r10), %rsi
	movabsq	$9223372036854775804, %r11
	andq	%rsi, %r11
	je	.LBB0_2
.Ltmp3:
	xorl	%edi, %edi
	xorl	%ebx, %ebx
.Ltmp4:
	.p2align	4, 0x90
.LBB0_16:
	.cv_loc	0 1 14 0
	vmovupd	(%rcx,%rdi), %ymm0
	vmovupd	32(%rcx,%rdi), %ymm1
	vmovupd	64(%rcx,%rdi), %ymm2
	vmovupd	96(%rcx,%rdi), %ymm3
	.cv_loc	0 1 17 0
	vaddpd	32(%rdx,%rdi), %ymm1, %ymm1
	vaddpd	(%rdx,%rdi), %ymm0, %ymm0
	vaddpd	96(%rdx,%rdi), %ymm3, %ymm3
	vaddpd	64(%rdx,%rdi), %ymm2, %ymm2
	.cv_loc	0 1 19 0
	vmovupd	%ymm2, 64(%r8,%rdi)
	vmovupd	%ymm3, 96(%r8,%rdi)
	vmovupd	%ymm0, (%r8,%rdi)
	vmovupd	%ymm1, 32(%r8,%rdi)
.Ltmp5:
	.cv_loc	0 1 13 0
	addq	$4, %rbx
	subq	$-128, %rdi
	cmpq	%r11, %rbx
	jb	.LBB0_16
.Ltmp6:
	cmpq	%r11, %rsi
	jne	.LBB0_3
	jmp	.LBB0_18
.Ltmp7:
.LBB0_2:
	xorl	%r11d, %r11d
.Ltmp8:
.LBB0_3:
	subq	%r11, %r10
	shlq	$5, %r11
	incq	%r10
.Ltmp9:
	.p2align	4, 0x90
.LBB0_4:
	.cv_loc	0 1 14 0
	vmovupd	(%rcx,%r11), %ymm0
	.cv_loc	0 1 17 0
	vaddpd	(%rdx,%r11), %ymm0, %ymm0
.Ltmp10:
	.cv_loc	0 1 19 0
	vmovupd	%ymm0, (%r8,%r11)
.Ltmp11:
	.cv_loc	0 1 13 0
	addq	$32, %r11
	decq	%r10
	jne	.LBB0_4
.Ltmp12:
.LBB0_18:
	.cv_loc	0 1 22 0
	andl	$-4, %eax
.Ltmp13:
	addl	$4, %eax
.Ltmp14:
.LBB0_5:
	movl	%r9d, %r10d
	shrl	$31, %r10d
	addl	%r9d, %r10d
	andl	$-2, %r10d
.Ltmp15:
	cmpl	%r10d, %eax
	jge	.LBB0_10
.Ltmp16:
	movl	%eax, %esi
	movslq	%r10d, %r11
	leaq	2(%rsi), %rax
.Ltmp17:
	cmpq	%r11, %rax
	cmovgq	%rax, %r11
	movq	%rsi, %r10
	notq	%r10
	addq	%r11, %r10
	movq	%r10, %r11
	shrq	%r11
	leaq	1(%r11), %rbx
	movq	%rbx, %rdi
	andq	$-4, %rdi
	je	.LBB0_7
.Ltmp18:
	leaq	-1(%rdi), %r14
	leaq	(,%rsi,8), %r15
	xorl	%r12d, %r12d
.Ltmp19:
	.p2align	4, 0x90
.LBB0_20:
	.cv_loc	0 1 23 0
	vmovupd	(%rcx,%r15), %ymm0
	vmovupd	32(%rcx,%r15), %ymm1
	.cv_loc	0 1 26 0
	vaddpd	(%rdx,%r15), %ymm0, %ymm0
	vaddpd	32(%rdx,%r15), %ymm1, %ymm1
	.cv_loc	0 1 28 0
	vmovupd	%ymm1, 32(%r8,%r15)
	vmovupd	%ymm0, (%r8,%r15)
.Ltmp20:
	.cv_loc	0 1 22 0
	addq	$4, %r12
	addq	$64, %r15
	cmpq	%r14, %r12
	jle	.LBB0_20
.Ltmp21:
	cmpq	%rdi, %rbx
	jne	.LBB0_8
	jmp	.LBB0_22
.Ltmp22:
.LBB0_7:
	xorl	%edi, %edi
.Ltmp23:
.LBB0_8:
	movq	%rdi, %rbx
	shlq	$4, %rbx
	leaq	(%rbx,%rsi,8), %rsi
.Ltmp24:
	notq	%r11
	addq	%rdi, %r11
.Ltmp25:
	.p2align	4, 0x90
.LBB0_9:
	.cv_loc	0 1 23 0
	vmovupd	(%rcx,%rsi), %xmm0
	.cv_loc	0 1 26 0
	vaddpd	(%rdx,%rsi), %xmm0, %xmm0
.Ltmp26:
	.cv_loc	0 1 28 0
	vmovupd	%xmm0, (%r8,%rsi)
.Ltmp27:
	.cv_loc	0 1 22 0
	addq	$16, %rsi
	incq	%r11
	jne	.LBB0_9
.Ltmp28:
.LBB0_22:
	.cv_loc	0 1 22 0
	andl	$-2, %r10d
	addl	%r10d, %eax
.Ltmp29:
.LBB0_10:
	.cv_loc	0 1 31 0
	cmpl	%r9d, %eax
	jge	.LBB0_26
.Ltmp30:
	movl	%eax, %r10d
	movslq	%r9d, %rax
.Ltmp31:
	movq	%rax, %r11
	subq	%r10, %r11
	movq	%r11, %r9
.Ltmp32:
	andq	$-4, %r9
	je	.LBB0_12
.Ltmp33:
	leaq	(%r8,%r10,8), %rsi
	leaq	(%rcx,%r10,8), %rdi
	leaq	(%rdx,%r10,8), %rbx
	xorl	%r14d, %r14d
.Ltmp34:
	.p2align	4, 0x90
.LBB0_24:
	.cv_loc	0 1 32 0
	vmovupd	(%rbx,%r14,8), %ymm0
	vaddpd	(%rdi,%r14,8), %ymm0, %ymm0
	vmovupd	%ymm0, (%rsi,%r14,8)
.Ltmp35:
	.cv_loc	0 1 31 0
	addq	$4, %r14
	cmpq	%r9, %r14
	jl	.LBB0_24
.Ltmp36:
	cmpq	%r9, %r11
	jne	.LBB0_13
	jmp	.LBB0_26
.Ltmp37:
.LBB0_12:
	xorl	%r9d, %r9d
.Ltmp38:
.LBB0_13:
	addq	%r10, %r9
.Ltmp39:
	.p2align	4, 0x90
.LBB0_14:
	.cv_loc	0 1 32 0
	vmovsd	(%rdx,%r9,8), %xmm0
	vaddsd	(%rcx,%r9,8), %xmm0, %xmm0
	vmovsd	%xmm0, (%r8,%r9,8)
.Ltmp40:
	.cv_loc	0 1 31 0
	incq	%r9
	cmpq	%r9, %rax
	jne	.LBB0_14
.Ltmp41:
.LBB0_26:
	.cv_loc	0 1 34 0
	popq	%rbx
	popq	%rdi
	popq	%rsi
	popq	%r12
	popq	%r14
	popq	%r15
	vzeroupper
	retq
.Ltmp42:
.Lfunc_end0:
	.seh_endproc

	.def	"?mulVectors@@YAXPEBN0PEANH@Z";
	.scl	2;
	.type	32;
	.endef
	.section	.text,"xr",one_only,"?mulVectors@@YAXPEBN0PEANH@Z"
	.globl	"?mulVectors@@YAXPEBN0PEANH@Z"
	.p2align	4, 0x90
"?mulVectors@@YAXPEBN0PEANH@Z":
.Lfunc_begin1:
	.cv_func_id 1
	.cv_loc	1 1 36 0
.seh_proc "?mulVectors@@YAXPEBN0PEANH@Z"
	pushq	%r15
	.seh_pushreg %r15
	pushq	%r14
	.seh_pushreg %r14
	pushq	%r12
	.seh_pushreg %r12
	pushq	%rsi
	.seh_pushreg %rsi
	pushq	%rdi
	.seh_pushreg %rdi
	pushq	%rbx
	.seh_pushreg %rbx
	.seh_endprologue
.Ltmp43:
	xorl	%eax, %eax
.Ltmp44:
	.cv_loc	1 1 39 0
	cmpl	$4, %r9d
	jl	.LBB1_5
.Ltmp45:
	movl	%r9d, %eax
	andl	$2147483644, %eax
	decq	%rax
	movq	%rax, %r10
	shrq	$2, %r10
	leaq	1(%r10), %rsi
	movabsq	$9223372036854775804, %r11
	andq	%rsi, %r11
	je	.LBB1_2
.Ltmp46:
	xorl	%edi, %edi
	xorl	%ebx, %ebx
.Ltmp47:
	.p2align	4, 0x90
.LBB1_16:
	.cv_loc	1 1 40 0
	vmovupd	(%rcx,%rdi), %ymm0
	vmovupd	32(%rcx,%rdi), %ymm1
	vmovupd	64(%rcx,%rdi), %ymm2
	vmovupd	96(%rcx,%rdi), %ymm3
	.cv_loc	1 1 43 0
	vmulpd	32(%rdx,%rdi), %ymm1, %ymm1
	vmulpd	(%rdx,%rdi), %ymm0, %ymm0
	vmulpd	96(%rdx,%rdi), %ymm3, %ymm3
	vmulpd	64(%rdx,%rdi), %ymm2, %ymm2
	.cv_loc	1 1 45 0
	vmovupd	%ymm2, 64(%r8,%rdi)
	vmovupd	%ymm3, 96(%r8,%rdi)
	vmovupd	%ymm0, (%r8,%rdi)
	vmovupd	%ymm1, 32(%r8,%rdi)
.Ltmp48:
	.cv_loc	1 1 39 0
	addq	$4, %rbx
	subq	$-128, %rdi
	cmpq	%r11, %rbx
	jb	.LBB1_16
.Ltmp49:
	cmpq	%r11, %rsi
	jne	.LBB1_3
	jmp	.LBB1_18
.Ltmp50:
.LBB1_2:
	xorl	%r11d, %r11d
.Ltmp51:
.LBB1_3:
	subq	%r11, %r10
	shlq	$5, %r11
	incq	%r10
.Ltmp52:
	.p2align	4, 0x90
.LBB1_4:
	.cv_loc	1 1 40 0
	vmovupd	(%rcx,%r11), %ymm0
	.cv_loc	1 1 43 0
	vmulpd	(%rdx,%r11), %ymm0, %ymm0
.Ltmp53:
	.cv_loc	1 1 45 0
	vmovupd	%ymm0, (%r8,%r11)
.Ltmp54:
	.cv_loc	1 1 39 0
	addq	$32, %r11
	decq	%r10
	jne	.LBB1_4
.Ltmp55:
.LBB1_18:
	.cv_loc	1 1 48 0
	andl	$-4, %eax
.Ltmp56:
	addl	$4, %eax
.Ltmp57:
.LBB1_5:
	movl	%r9d, %r10d
	shrl	$31, %r10d
	addl	%r9d, %r10d
	andl	$-2, %r10d
.Ltmp58:
	cmpl	%r10d, %eax
	jge	.LBB1_10
.Ltmp59:
	movl	%eax, %esi
	movslq	%r10d, %r11
	leaq	2(%rsi), %rax
.Ltmp60:
	cmpq	%r11, %rax
	cmovgq	%rax, %r11
	movq	%rsi, %r10
	notq	%r10
	addq	%r11, %r10
	movq	%r10, %r11
	shrq	%r11
	leaq	1(%r11), %rbx
	movq	%rbx, %rdi
	andq	$-4, %rdi
	je	.LBB1_7
.Ltmp61:
	leaq	-1(%rdi), %r14
	leaq	(,%rsi,8), %r15
	xorl	%r12d, %r12d
.Ltmp62:
	.p2align	4, 0x90
.LBB1_20:
	.cv_loc	1 1 49 0
	vmovupd	(%rcx,%r15), %ymm0
	vmovupd	32(%rcx,%r15), %ymm1
	.cv_loc	1 1 52 0
	vmulpd	(%rdx,%r15), %ymm0, %ymm0
	vmulpd	32(%rdx,%r15), %ymm1, %ymm1
	.cv_loc	1 1 54 0
	vmovupd	%ymm1, 32(%r8,%r15)
	vmovupd	%ymm0, (%r8,%r15)
.Ltmp63:
	.cv_loc	1 1 48 0
	addq	$4, %r12
	addq	$64, %r15
	cmpq	%r14, %r12
	jle	.LBB1_20
.Ltmp64:
	cmpq	%rdi, %rbx
	jne	.LBB1_8
	jmp	.LBB1_22
.Ltmp65:
.LBB1_7:
	xorl	%edi, %edi
.Ltmp66:
.LBB1_8:
	movq	%rdi, %rbx
	shlq	$4, %rbx
	leaq	(%rbx,%rsi,8), %rsi
.Ltmp67:
	notq	%r11
	addq	%rdi, %r11
.Ltmp68:
	.p2align	4, 0x90
.LBB1_9:
	.cv_loc	1 1 49 0
	vmovupd	(%rcx,%rsi), %xmm0
	.cv_loc	1 1 52 0
	vmulpd	(%rdx,%rsi), %xmm0, %xmm0
.Ltmp69:
	.cv_loc	1 1 54 0
	vmovupd	%xmm0, (%r8,%rsi)
.Ltmp70:
	.cv_loc	1 1 48 0
	addq	$16, %rsi
	incq	%r11
	jne	.LBB1_9
.Ltmp71:
.LBB1_22:
	.cv_loc	1 1 48 0
	andl	$-2, %r10d
	addl	%r10d, %eax
.Ltmp72:
.LBB1_10:
	.cv_loc	1 1 57 0
	cmpl	%r9d, %eax
	jge	.LBB1_26
.Ltmp73:
	movl	%eax, %r10d
	movslq	%r9d, %rax
.Ltmp74:
	movq	%rax, %r11
	subq	%r10, %r11
	movq	%r11, %r9
.Ltmp75:
	andq	$-4, %r9
	je	.LBB1_12
.Ltmp76:
	leaq	(%r8,%r10,8), %rsi
	leaq	(%rcx,%r10,8), %rdi
	leaq	(%rdx,%r10,8), %rbx
	xorl	%r14d, %r14d
.Ltmp77:
	.p2align	4, 0x90
.LBB1_24:
	.cv_loc	1 1 58 0
	vmovupd	(%rbx,%r14,8), %ymm0
	vmulpd	(%rdi,%r14,8), %ymm0, %ymm0
	vmovupd	%ymm0, (%rsi,%r14,8)
.Ltmp78:
	.cv_loc	1 1 57 0
	addq	$4, %r14
	cmpq	%r9, %r14
	jl	.LBB1_24
.Ltmp79:
	cmpq	%r9, %r11
	jne	.LBB1_13
	jmp	.LBB1_26
.Ltmp80:
.LBB1_12:
	xorl	%r9d, %r9d
.Ltmp81:
.LBB1_13:
	addq	%r10, %r9
.Ltmp82:
	.p2align	4, 0x90
.LBB1_14:
	.cv_loc	1 1 58 0
	vmovsd	(%rdx,%r9,8), %xmm0
	vmulsd	(%rcx,%r9,8), %xmm0, %xmm0
	vmovsd	%xmm0, (%r8,%r9,8)
.Ltmp83:
	.cv_loc	1 1 57 0
	incq	%r9
	cmpq	%r9, %rax
	jne	.LBB1_14
.Ltmp84:
.LBB1_26:
	.cv_loc	1 1 60 0
	popq	%rbx
	popq	%rdi
	popq	%rsi
	popq	%r12
	popq	%r14
	popq	%r15
	vzeroupper
	retq
.Ltmp85:
.Lfunc_end1:
	.seh_endproc

	.def	"?scalarMult@@YANPEBN0H@Z";
	.scl	2;
	.type	32;
	.endef
	.section	.text,"xr",one_only,"?scalarMult@@YANPEBN0H@Z"
	.globl	"?scalarMult@@YANPEBN0H@Z"
	.p2align	4, 0x90
"?scalarMult@@YANPEBN0H@Z":
.Lfunc_begin2:
	.cv_func_id 2
	.cv_loc	2 1 62 0
.seh_proc "?scalarMult@@YANPEBN0H@Z"
	pushq	%rsi
	.seh_pushreg %rsi
	pushq	%rdi
	.seh_pushreg %rdi
	.seh_endprologue
.Ltmp86:
	.cv_loc	2 1 68 0
	cmpl	$4, %r8d
	jl	.LBB2_1
.Ltmp87:
	movl	%r8d, %eax
	andl	$2147483644, %eax
.Ltmp88:
	decq	%rax
	movq	%rax, %r9
	shrq	$2, %r9
	leaq	1(%r9), %r10
	vxorpd	%xmm0, %xmm0, %xmm0
.Ltmp89:
	cmpq	$28, %rax
	jb	.LBB2_10
.Ltmp90:
	movq	%r10, %r11
	shrq	$3, %r11
	movl	$224, %esi
.Ltmp91:
	.p2align	4, 0x90
.LBB2_9:
	.cv_loc	2 1 69 0
	vmovupd	-224(%rcx,%rsi), %ymm1
	vmovupd	-192(%rcx,%rsi), %ymm2
	vmovupd	-160(%rcx,%rsi), %ymm3
	.cv_loc	2 1 72 0
	vfmadd132pd	-224(%rdx,%rsi), %ymm0, %ymm1
.Ltmp92:
	vfmadd231pd	-192(%rdx,%rsi), %ymm2, %ymm1
.Ltmp93:
	vfmadd231pd	-160(%rdx,%rsi), %ymm3, %ymm1
.Ltmp94:
	.cv_loc	2 1 69 0
	vmovupd	-128(%rcx,%rsi), %ymm0
	.cv_loc	2 1 72 0
	vfmadd231pd	-128(%rdx,%rsi), %ymm0, %ymm1
.Ltmp95:
	.cv_loc	2 1 69 0
	vmovupd	-96(%rcx,%rsi), %ymm0
	.cv_loc	2 1 72 0
	vfmadd132pd	-96(%rdx,%rsi), %ymm1, %ymm0
.Ltmp96:
	.cv_loc	2 1 69 0
	vmovupd	-64(%rcx,%rsi), %ymm1
	.cv_loc	2 1 72 0
	vfmadd132pd	-64(%rdx,%rsi), %ymm0, %ymm1
.Ltmp97:
	.cv_loc	2 1 69 0
	vmovupd	-32(%rcx,%rsi), %ymm2
	.cv_loc	2 1 72 0
	vfmadd132pd	-32(%rdx,%rsi), %ymm1, %ymm2
.Ltmp98:
	.cv_loc	2 1 69 0
	vmovupd	(%rcx,%rsi), %ymm0
	.cv_loc	2 1 72 0
	vfmadd132pd	(%rdx,%rsi), %ymm2, %ymm0
.Ltmp99:
	.cv_loc	2 1 68 0
	addq	$256, %rsi
	decq	%r11
	jne	.LBB2_9
.Ltmp100:
.LBB2_10:
	andq	$-8, %r10
	cmpq	%r9, %r10
	ja	.LBB2_13
.Ltmp101:
	subq	%r10, %r9
	shlq	$5, %r10
	incq	%r9
.Ltmp102:
	.p2align	4, 0x90
.LBB2_12:
	.cv_loc	2 1 69 0
	vmovupd	(%rcx,%r10), %ymm1
	.cv_loc	2 1 72 0
	vfmadd231pd	(%rdx,%r10), %ymm1, %ymm0
.Ltmp103:
	.cv_loc	2 1 68 0
	addq	$32, %r10
	decq	%r9
	jne	.LBB2_12
.Ltmp104:
.LBB2_13:
	.cv_loc	2 1 78 0
	andl	$-4, %eax
.Ltmp105:
	addl	$4, %eax
	jmp	.LBB2_2
.Ltmp106:
.LBB2_1:
	xorl	%eax, %eax
	vxorpd	%xmm0, %xmm0, %xmm0
.Ltmp107:
.LBB2_2:
	vextractf128	$1, %ymm0, %xmm1
	vaddpd	%xmm1, %xmm0, %xmm0
.Ltmp108:
	vshufpd	$1, %xmm0, %xmm0, %xmm1
	vaddsd	%xmm1, %xmm0, %xmm0
.Ltmp109:
	.cv_loc	2 1 81 0
	cmpl	%r8d, %eax
	jge	.LBB2_17
.Ltmp110:
	movl	%eax, %r9d
	movslq	%r8d, %rax
.Ltmp111:
	movq	%rax, %r10
	subq	%r9, %r10
	movq	%r10, %r8
.Ltmp112:
	andq	$-4, %r8
	je	.LBB2_4
.Ltmp113:
	leaq	(%rcx,%r9,8), %r11
	leaq	(%rdx,%r9,8), %rsi
	vxorpd	%xmm1, %xmm1, %xmm1
	xorl	%edi, %edi
.Ltmp114:
	.p2align	4, 0x90
.LBB2_15:
	.cv_loc	2 1 82 0
	vmovupd	(%rsi,%rdi,8), %ymm2
	vfmadd231pd	(%r11,%rdi,8), %ymm2, %ymm1
.Ltmp115:
	.cv_loc	2 1 81 0
	addq	$4, %rdi
	cmpq	%r8, %rdi
	jl	.LBB2_15
.Ltmp116:
	.cv_loc	2 1 82 0
	vextractf128	$1, %ymm1, %xmm2
	vaddpd	%xmm2, %xmm1, %xmm1
	vshufpd	$1, %xmm1, %xmm1, %xmm2
	vaddsd	%xmm2, %xmm1, %xmm1
	vaddsd	%xmm1, %xmm0, %xmm0
.Ltmp117:
	.cv_loc	2 1 81 0
	cmpq	%r8, %r10
	jne	.LBB2_5
	jmp	.LBB2_17
.Ltmp118:
.LBB2_4:
	xorl	%r8d, %r8d
.Ltmp119:
.LBB2_5:
	addq	%r9, %r8
.Ltmp120:
	.p2align	4, 0x90
.LBB2_6:
	.cv_loc	2 1 82 0
	vmovsd	(%rdx,%r8,8), %xmm1
	vfmadd231sd	(%rcx,%r8,8), %xmm1, %xmm0
.Ltmp121:
	.cv_loc	2 1 81 0
	incq	%r8
	cmpq	%r8, %rax
	jne	.LBB2_6
.Ltmp122:
.LBB2_17:
	.cv_loc	2 1 86 0
	popq	%rdi
	popq	%rsi
	vzeroupper
.Ltmp123:
	retq
.Ltmp124:
.Lfunc_end2:
	.seh_endproc

	.def	main;
	.scl	2;
	.type	32;
	.endef
	.section	.text,"xr",one_only,main
	.globl	main
	.p2align	4, 0x90
main:
.Lfunc_begin3:
	.cv_func_id 3
	.cv_loc	3 1 88 0
.seh_proc main
	pushq	%r14
	.seh_pushreg %r14
	pushq	%rsi
	.seh_pushreg %rsi
	pushq	%rdi
	.seh_pushreg %rdi
	pushq	%rbx
	.seh_pushreg %rbx
	subq	$56, %rsp
	.seh_stackalloc 56
	.seh_endprologue
	movq	__security_cookie(%rip), %rax
	xorq	%rsp, %rax
	movq	%rax, 48(%rsp)
	vstmxcsr	44(%rsp)
	orl	$32832, 44(%rsp)
	vldmxcsr	44(%rsp)
.Ltmp125:
	.cv_loc	3 1 91 0
	movq	__imp__aligned_malloc(%rip), %rbx
	movl	$32000000, %ecx
	movl	$32, %edx
.Ltmp126:
	callq	*%rbx
.Ltmp127:
	movq	%rax, %rsi
.Ltmp128:
	.cv_loc	3 1 92 0
	movl	$32000000, %ecx
	movl	$32, %edx
.Ltmp129:
	callq	*%rbx
.Ltmp130:
	movq	%rax, %rdi
.Ltmp131:
	.cv_loc	3 1 93 0
	movl	$32000000, %ecx
	movl	$32, %edx
.Ltmp132:
	callq	*%rbx
.Ltmp133:
	movq	%rax, %rbx
.Ltmp134:
	.cv_file	2 "C:\\Program Files\\Microsoft Visual Studio\\2022\\Enterprise\\VC\\Tools\\MSVC\\14.39.33519\\include\\__msvc_chrono.hpp" "1F38FB01ECF955BBE5DB7E8CD44E32E7" 1
	.cv_inline_site_id 4 within 3 inlined_at 1 95 0
	.cv_loc	4 2 679 0
	callq	_Query_perf_frequency
.Ltmp135:
	.cv_loc	4 2 680 0
	callq	_Query_perf_counter
.Ltmp136:
	movl	$384, %eax
.Ltmp137:
	movq	$-4, %rcx
.Ltmp138:
	.p2align	4, 0x90
.LBB3_1:
	.cv_inline_site_id 5 within 3 inlined_at 1 96 0
	.cv_loc	5 1 14 0
	vmovupd	-384(%rsi,%rax), %ymm0
	vmovupd	-352(%rsi,%rax), %ymm1
	vmovupd	-320(%rsi,%rax), %ymm2
	vmovupd	-288(%rsi,%rax), %ymm3
	.cv_loc	5 1 17 0
	vaddpd	-320(%rdi,%rax), %ymm2, %ymm2
	vaddpd	-352(%rdi,%rax), %ymm1, %ymm1
	vaddpd	-384(%rdi,%rax), %ymm0, %ymm0
	vaddpd	-288(%rdi,%rax), %ymm3, %ymm3
	.cv_loc	5 1 19 0
	vmovupd	%ymm3, -288(%rbx,%rax)
	vmovupd	%ymm0, -384(%rbx,%rax)
	vmovupd	%ymm1, -352(%rbx,%rax)
	vmovupd	%ymm2, -320(%rbx,%rax)
	.cv_loc	5 1 14 0
	vmovupd	-256(%rsi,%rax), %ymm0
	vmovupd	-224(%rsi,%rax), %ymm1
	vmovupd	-192(%rsi,%rax), %ymm2
	vmovupd	-160(%rsi,%rax), %ymm3
	.cv_loc	5 1 17 0
	vaddpd	-192(%rdi,%rax), %ymm2, %ymm2
	vaddpd	-224(%rdi,%rax), %ymm1, %ymm1
	vaddpd	-256(%rdi,%rax), %ymm0, %ymm0
	vaddpd	-160(%rdi,%rax), %ymm3, %ymm3
	.cv_loc	5 1 19 0
	vmovupd	%ymm3, -160(%rbx,%rax)
	vmovupd	%ymm0, -256(%rbx,%rax)
	vmovupd	%ymm1, -224(%rbx,%rax)
	vmovupd	%ymm2, -192(%rbx,%rax)
	.cv_loc	5 1 14 0
	vmovupd	-128(%rsi,%rax), %ymm0
	vmovupd	-96(%rsi,%rax), %ymm1
	vmovupd	-64(%rsi,%rax), %ymm2
	vmovupd	-32(%rsi,%rax), %ymm3
	.cv_loc	5 1 17 0
	vaddpd	-64(%rdi,%rax), %ymm2, %ymm2
	vaddpd	-96(%rdi,%rax), %ymm1, %ymm1
	vaddpd	-128(%rdi,%rax), %ymm0, %ymm0
	vaddpd	-32(%rdi,%rax), %ymm3, %ymm3
	.cv_loc	5 1 19 0
	vmovupd	%ymm3, -32(%rbx,%rax)
	vmovupd	%ymm0, -128(%rbx,%rax)
	vmovupd	%ymm1, -96(%rbx,%rax)
	vmovupd	%ymm2, -64(%rbx,%rax)
	.cv_loc	5 1 14 0
	vmovupd	(%rsi,%rax), %ymm0
	vmovupd	32(%rsi,%rax), %ymm1
	vmovupd	64(%rsi,%rax), %ymm2
	vmovupd	96(%rsi,%rax), %ymm3
	.cv_loc	5 1 17 0
	vaddpd	32(%rdi,%rax), %ymm1, %ymm1
	vaddpd	(%rdi,%rax), %ymm0, %ymm0
	vaddpd	96(%rdi,%rax), %ymm3, %ymm3
	vaddpd	64(%rdi,%rax), %ymm2, %ymm2
	.cv_loc	5 1 19 0
	vmovupd	%ymm2, 64(%rbx,%rax)
	vmovupd	%ymm3, 96(%rbx,%rax)
	vmovupd	%ymm0, (%rbx,%rax)
	vmovupd	%ymm1, 32(%rbx,%rax)
.Ltmp139:
	.cv_loc	5 1 13 0
	addq	$512, %rax
	addq	$16, %rcx
	cmpq	$999996, %rcx
	jb	.LBB3_1
.Ltmp140:
	.cv_inline_site_id 6 within 3 inlined_at 1 97 0
	.cv_loc	6 2 679 0
	vzeroupper
	callq	_Query_perf_frequency
.Ltmp141:
	.cv_loc	6 2 680 0
	callq	_Query_perf_counter
.Ltmp142:
	vxorpd	%xmm0, %xmm0, %xmm0
	movl	$224, %eax
.Ltmp143:
	.p2align	4, 0x90
.LBB3_3:
	.cv_inline_site_id 7 within 3 inlined_at 1 101 0
	.cv_loc	7 1 69 0
	vmovupd	-224(%rsi,%rax), %ymm1
	vmovupd	-192(%rsi,%rax), %ymm2
	vmovupd	-160(%rsi,%rax), %ymm3
	.cv_loc	7 1 72 0
	vfmadd132pd	-224(%rdi,%rax), %ymm0, %ymm1
.Ltmp144:
	vfmadd231pd	-192(%rdi,%rax), %ymm2, %ymm1
.Ltmp145:
	vfmadd231pd	-160(%rdi,%rax), %ymm3, %ymm1
.Ltmp146:
	.cv_loc	7 1 69 0
	vmovupd	-128(%rsi,%rax), %ymm0
	.cv_loc	7 1 72 0
	vfmadd231pd	-128(%rdi,%rax), %ymm0, %ymm1
.Ltmp147:
	.cv_loc	7 1 69 0
	vmovupd	-96(%rsi,%rax), %ymm0
	.cv_loc	7 1 72 0
	vfmadd132pd	-96(%rdi,%rax), %ymm1, %ymm0
.Ltmp148:
	.cv_loc	7 1 69 0
	vmovupd	-64(%rsi,%rax), %ymm1
	.cv_loc	7 1 72 0
	vfmadd132pd	-64(%rdi,%rax), %ymm0, %ymm1
.Ltmp149:
	.cv_loc	7 1 69 0
	vmovupd	-32(%rsi,%rax), %ymm2
	.cv_loc	7 1 72 0
	vfmadd132pd	-32(%rdi,%rax), %ymm1, %ymm2
.Ltmp150:
	.cv_loc	7 1 69 0
	vmovupd	(%rsi,%rax), %ymm0
	.cv_loc	7 1 72 0
	vfmadd132pd	(%rdi,%rax), %ymm2, %ymm0
.Ltmp151:
	.cv_loc	7 1 68 0
	addq	$256, %rax
	cmpq	$32000224, %rax
	jne	.LBB3_3
.Ltmp152:
	.cv_loc	7 1 78 0
	vextractf128	$1, %ymm0, %xmm1
	vaddpd	%xmm1, %xmm0, %xmm0
.Ltmp153:
	vshufpd	$1, %xmm0, %xmm0, %xmm1
	vaddsd	%xmm1, %xmm0, %xmm1
.Ltmp154:
	.cv_loc	3 1 101 0
	movq	"__imp_?cout@std@@3V?$basic_ostream@DU?$char_traits@D@std@@@1@A"(%rip), %rcx
	vzeroupper
.Ltmp155:
	callq	*"__imp_??6?$basic_ostream@DU?$char_traits@D@std@@@std@@QEAAAEAV01@N@Z"(%rip)
	.cv_loc	3 1 103 0
	movq	__imp__aligned_free(%rip), %r14
	movq	%rsi, %rcx
	callq	*%r14
	.cv_loc	3 1 104 0
	movq	%rdi, %rcx
	callq	*%r14
	.cv_loc	3 1 105 0
	movq	%rbx, %rcx
	callq	*%r14
	movq	48(%rsp), %rcx
	xorq	%rsp, %rcx
	callq	__security_check_cookie
	.cv_loc	3 1 106 0
	xorl	%eax, %eax
	addq	$56, %rsp
	popq	%rbx
.Ltmp156:
	popq	%rdi
.Ltmp157:
	popq	%rsi
.Ltmp158:
	popq	%r14
	retq
.Ltmp159:
.Lfunc_end3:
	.seh_endproc

	.section	.drectve,"yni"
	.ascii	" /DEFAULTLIB:msvcprtd.lib"
	.ascii	" /DEFAULTLIB:msvcrtd.lib"
	.ascii	" /DEFAULTLIB:libircmt.lib"
	.ascii	" /DEFAULTLIB:svml_dispmd.lib"
	.ascii	" /DEFAULTLIB:libdecimal.lib"
	.ascii	" /DEFAULTLIB:libmmdd.lib"
	.ascii	" /DEFAULTLIB:oldnames.lib"
	.ascii	" /FAILIFMISMATCH:\"_MSC_VER=1900\""
	.ascii	" /FAILIFMISMATCH:\"_ITERATOR_DEBUG_LEVEL=2\""
	.ascii	" /FAILIFMISMATCH:\"RuntimeLibrary=MDd_DynamicDebug\""
	.ascii	" /FAILIFMISMATCH:\"_CRT_STDIO_ISO_WIDE_SPECIFIERS=0\""
	.ascii	" /FAILIFMISMATCH:\"annotate_string=0\""
	.ascii	" /FAILIFMISMATCH:\"annotate_vector=0\""